target datalayout = "e-m:e-p270:32:32-p271:32:32-p272:64:64-i64:64-i128:128-f80:128-n8:16:32:64-S128"
target triple = "x86_64-pc-linux-gnu"

%class.ezMiniSAT = type { %class.ezSAT.base, ptr, %"class.std::vector.14", i8, %"class.std::set" }
%class.ezSAT.base = type <{ ptr, i8, i8, i8, [5 x i8], %"class.std::map", %"class.std::vector", %"class.std::map.3", %"class.std::vector.9", i8, [3 x i8], i32, i32, [4 x i8], %"class.std::vector.14", %"class.std::vector.14", %"class.std::vector.19", %"class.std::vector.19", i32, i8, [3 x i8], i32 }>
%"class.std::map" = type { %"class.std::_Rb_tree" }
%"class.std::_Rb_tree" = type { %"struct.std::_Rb_tree<std::__cxx11::basic_string<char>, std::pair<const std::__cxx11::basic_string<char>, int>, std::_Select1st<std::pair<const std::__cxx11::basic_string<char>, int>>, std::less<std::__cxx11::basic_string<char>>>::_Rb_tree_impl" }
%"struct.std::_Rb_tree<std::__cxx11::basic_string<char>, std::pair<const std::__cxx11::basic_string<char>, int>, std::_Select1st<std::pair<const std::__cxx11::basic_string<char>, int>>, std::less<std::__cxx11::basic_string<char>>>::_Rb_tree_impl" = type { [8 x i8], %"struct.std::_Rb_tree_header" }
%"struct.std::_Rb_tree_header" = type { %"struct.std::_Rb_tree_node_base", i64 }
%"struct.std::_Rb_tree_node_base" = type { i32, ptr, ptr, ptr }
%"class.std::vector" = type { %"struct.std::_Vector_base" }
%"struct.std::_Vector_base" = type { %"struct.std::_Vector_base<std::__cxx11::basic_string<char>, std::allocator<std::__cxx11::basic_string<char>>>::_Vector_impl" }
%"struct.std::_Vector_base<std::__cxx11::basic_string<char>, std::allocator<std::__cxx11::basic_string<char>>>::_Vector_impl" = type { %"struct.std::_Vector_base<std::__cxx11::basic_string<char>, std::allocator<std::__cxx11::basic_string<char>>>::_Vector_impl_data" }
%"struct.std::_Vector_base<std::__cxx11::basic_string<char>, std::allocator<std::__cxx11::basic_string<char>>>::_Vector_impl_data" = type { ptr, ptr, ptr }
%"class.std::map.3" = type { %"class.std::_Rb_tree.4" }
%"class.std::_Rb_tree.4" = type { %"struct.std::_Rb_tree<std::pair<ezSAT::OpId, std::vector<int>>, std::pair<const std::pair<ezSAT::OpId, std::vector<int>>, int>, std::_Select1st<std::pair<const std::pair<ezSAT::OpId, std::vector<int>>, int>>, std::less<std::pair<ezSAT::OpId, std::vector<int>>>>::_Rb_tree_impl" }
%"struct.std::_Rb_tree<std::pair<ezSAT::OpId, std::vector<int>>, std::pair<const std::pair<ezSAT::OpId, std::vector<int>>, int>, std::_Select1st<std::pair<const std::pair<ezSAT::OpId, std::vector<int>>, int>>, std::less<std::pair<ezSAT::OpId, std::vector<int>>>>::_Rb_tree_impl" = type { [8 x i8], %"struct.std::_Rb_tree_header" }
%"class.std::vector.9" = type { %"struct.std::_Vector_base.10" }
%"struct.std::_Vector_base.10" = type { %"struct.std::_Vector_base<std::pair<ezSAT::OpId, std::vector<int>>, std::allocator<std::pair<ezSAT::OpId, std::vector<int>>>>::_Vector_impl" }
%"struct.std::_Vector_base<std::pair<ezSAT::OpId, std::vector<int>>, std::allocator<std::pair<ezSAT::OpId, std::vector<int>>>>::_Vector_impl" = type { %"struct.std::_Vector_base<std::pair<ezSAT::OpId, std::vector<int>>, std::allocator<std::pair<ezSAT::OpId, std::vector<int>>>>::_Vector_impl_data" }
%"struct.std::_Vector_base<std::pair<ezSAT::OpId, std::vector<int>>, std::allocator<std::pair<ezSAT::OpId, std::vector<int>>>>::_Vector_impl_data" = type { ptr, ptr, ptr }
%"class.std::vector.19" = type { %"struct.std::_Vector_base.20" }
%"struct.std::_Vector_base.20" = type { %"struct.std::_Vector_base<std::vector<int>, std::allocator<std::vector<int>>>::_Vector_impl" }
%"struct.std::_Vector_base<std::vector<int>, std::allocator<std::vector<int>>>::_Vector_impl" = type { %"struct.std::_Vector_base<std::vector<int>, std::allocator<std::vector<int>>>::_Vector_impl_data" }
%"struct.std::_Vector_base<std::vector<int>, std::allocator<std::vector<int>>>::_Vector_impl_data" = type { ptr, ptr, ptr }
%"class.std::vector.14" = type { %"struct.std::_Vector_base.15" }
%"struct.std::_Vector_base.15" = type { %"struct.std::_Vector_base<int, std::allocator<int>>::_Vector_impl" }
%"struct.std::_Vector_base<int, std::allocator<int>>::_Vector_impl" = type { %"struct.std::_Vector_base<int, std::allocator<int>>::_Vector_impl_data" }
%"struct.std::_Vector_base<int, std::allocator<int>>::_Vector_impl_data" = type { ptr, ptr, ptr }
%"class.std::set" = type { %"class.std::_Rb_tree.24" }
%"class.std::_Rb_tree.24" = type { %"struct.std::_Rb_tree<int, int, std::_Identity<int>, std::less<int>>::_Rb_tree_impl" }
%"struct.std::_Rb_tree<int, int, std::_Identity<int>, std::less<int>>::_Rb_tree_impl" = type { [8 x i8], %"struct.std::_Rb_tree_header" }
%"class.Minisat::vec" = type { ptr, i32, i32 }
%"class.Minisat::LSet" = type { %"class.Minisat::IntSet" }
%"class.Minisat::IntSet" = type { %"class.Minisat::IntMap", %"class.Minisat::vec.30" }
%"class.Minisat::IntMap" = type <{ %"class.Minisat::vec.29", [8 x i8] }>
%"class.Minisat::vec.29" = type { ptr, i32, i32 }
%"class.Minisat::VMap" = type { %"class.Minisat::IntMap.base.35", [7 x i8] }
%"class.Minisat::IntMap.base.35" = type <{ %"class.Minisat::vec.34", i8 }>
%"class.Minisat::vec.34" = type { ptr, i32, i32 }
%"class.Minisat::VMap.36" = type { %"class.Minisat::IntMap.base.38", [7 x i8] }
%"class.Minisat::IntMap.base.38" = type <{ %"class.Minisat::vec", i8 }>
%"class.Minisat::VMap.44" = type { %"class.Minisat::IntMap.base.47", [7 x i8] }
%"class.Minisat::IntMap.base.47" = type <{ %"class.Minisat::vec.46", i8 }>
%"class.Minisat::vec.46" = type { ptr, i32, i32 }
%"class.Minisat::OccLists" = type { %"class.Minisat::IntMap.49", %"class.Minisat::IntMap", %"class.Minisat::vec.30", %"struct.Minisat::Solver::WatcherDeleted" }
%"class.Minisat::IntMap.49" = type <{ %"class.Minisat::vec.50", [8 x i8] }>
%"class.Minisat::vec.50" = type { ptr, i32, i32 }
%"struct.Minisat::Solver::WatcherDeleted" = type { ptr }
%"class.Minisat::Heap" = type { %"class.Minisat::vec.32", %"class.Minisat::IntMap.52", %"struct.Minisat::Solver::VarOrderLt" }
%"class.Minisat::IntMap.52" = type <{ %"class.Minisat::vec.32", [8 x i8] }>
%"struct.Minisat::Solver::VarOrderLt" = type { ptr }
%"class.Minisat::ClauseAllocator" = type { %"class.Minisat::RegionAllocator", i8, [7 x i8] }
%"class.Minisat::RegionAllocator" = type <{ ptr, i32, i32, i32, [4 x i8] }>
%"class.Minisat::vec.54" = type { ptr, i32, i32 }
%"class.Minisat::vec.30" = type { ptr, i32, i32 }
%"class.Minisat::vec.31" = type { ptr, i32, i32 }
%"class.Minisat::vec.32" = type { ptr, i32, i32 }
%"class.Minisat::VMap.40" = type { %"class.Minisat::IntMap.base.42", [7 x i8] }
%"class.Minisat::IntMap.base.42" = type <{ %"class.Minisat::vec.29", i8 }>
%"class.Minisat::Solver" = type <{ ptr, %"class.Minisat::vec", %"class.Minisat::LSet", i32, [4 x i8], double, double, double, double, i8, [3 x i8], i32, i32, i8, i8, [2 x i8], double, i32, i32, double, double, double, i32, [4 x i8], double, i64, i64, i64, i64, i64, i64, i64, i64, i64, i64, i64, i64, i64, %"class.Minisat::vec.31", %"class.Minisat::vec.31", %"class.Minisat::vec.30", %"class.Minisat::vec.32", %"class.Minisat::vec.30", %"class.Minisat::VMap", %"class.Minisat::VMap.36", %"class.Minisat::VMap.40", %"class.Minisat::VMap.36", %"class.Minisat::VMap.40", %"class.Minisat::VMap.44", %"class.Minisat::OccLists", %"class.Minisat::Heap", i8, [7 x i8], double, double, i32, i32, i64, double, i8, [3 x i8], i32, %"class.Minisat::ClauseAllocator", %"class.Minisat::vec.32", %"class.Minisat::vec.32", %"class.Minisat::VMap.40", %"class.Minisat::vec.54", %"class.Minisat::vec.30", %"class.Minisat::vec.30", double, double, i32, [4 x i8], i64, i64, i8, [7 x i8] }>

@_ZN9ezMiniSAT16alarmHandlerThisE = global ptr null, align 8
@_ZN9ezMiniSAT19alarmHandlerTimeoutE = global i64 0, align 8

; Function Attrs: inlinehint mustprogress nounwind uwtable
define linkonce_odr void @_ZN7Minisat6Solver9interruptEv(ptr noundef nonnull align 8 dereferenceable(857) %0) #8 comdat align 2 {
  %2 = alloca ptr, align 8
  store ptr %0, ptr %2, align 8, !tbaa !79
  %3 = load ptr, ptr %2, align 8
  %4 = getelementptr inbounds nuw %"class.Minisat::Solver", ptr %3, i32 0, i32 75
  store i8 1, ptr %4, align 8, !tbaa !81
  ret void
}

; Function Attrs: mustprogress uwtable
define void @_ZN9ezMiniSAT12alarmHandlerEi(i32 noundef %0) #3 align 2 {
  %2 = alloca i32, align 4
  store i32 %0, ptr %2, align 4, !tbaa !65
  %3 = call i64 @clock() #18
  %4 = load i64, ptr @_ZN9ezMiniSAT19alarmHandlerTimeoutE, align 8, !tbaa !78
  %5 = icmp sgt i64 %3, %4
  br i1 %5, label %6, label %10

6:                                                ; preds = %1
  %7 = load ptr, ptr @_ZN9ezMiniSAT16alarmHandlerThisE, align 8, !tbaa !14
  %8 = getelementptr inbounds nuw %class.ezMiniSAT, ptr %7, i32 0, i32 1
  %9 = load ptr, ptr %8, align 8, !tbaa !18
  call void @_ZN7Minisat6Solver9interruptEv(ptr noundef nonnull align 8 dereferenceable(857) %9)
  store i64 0, ptr @_ZN9ezMiniSAT19alarmHandlerTimeoutE, align 8, !tbaa !78
  br label %12

10:                                               ; preds = %1
  %11 = call i32 @alarm(i32 noundef 1) #18
  br label %12

12:                                               ; preds = %10, %6
  ret void
}