; Function Attrs: mustprogress nounwind uwtable
define void @_ZN9ezMiniSAT12alarmHandlerEi(i32 %0) #2 align 2 {
  %2 = tail call i64 @clock() #21
  %3 = load i64, ptr @_ZN9ezMiniSAT19alarmHandlerTimeoutE, align 8, !tbaa !77
  %4 = icmp sgt i64 %2, %3
  br i1 %4, label %5, label %10

5:                                                ; preds = %1
  %6 = load ptr, ptr @_ZN9ezMiniSAT16alarmHandlerThisE, align 8, !tbaa !78
  %7 = getelementptr inbounds nuw i8, ptr %6, i64 288
  %8 = load ptr, ptr %7, align 8, !tbaa !21
  %9 = getelementptr inbounds nuw i8, ptr %8, i64 856
  store i8 1, ptr %9, align 8, !tbaa !80
  store i64 0, ptr @_ZN9ezMiniSAT19alarmHandlerTimeoutE, align 8, !tbaa !77
  br label %12

10:                                               ; preds = %1
  %11 = tail call i32 @alarm(i32 noundef 1) #21
  br label %12

12:                                               ; preds = %10, %5
  ret void
}